target datalayout = "e-m:e-p270:32:32-p271:32:32-p272:64:64-i64:64-i128:128-f80:128-n8:16:32:64-S128"
target triple = "x86_64-pc-linux-gnu"

%struct._GTypeInstance = type { ptr }
%struct._GTypeClass = type { i64 }

; Function Attrs: nounwind uwtable
define internal i32 @_lib_plugin_header_button_release(ptr noundef %0, ptr noundef %1, ptr noundef %2) #0 {
  %4 = alloca i32, align 4
  %5 = alloca ptr, align 8
  %6 = alloca ptr, align 8
  %7 = alloca ptr, align 8
  %8 = alloca ptr, align 8
  %9 = alloca i64, align 8
  %10 = alloca i32, align 4
  %11 = alloca i32, align 4
  store ptr %0, ptr %5, align 8, !tbaa !111
  store ptr %1, ptr %6, align 8, !tbaa !120
  store ptr %2, ptr %7, align 8, !tbaa !76
  call void @llvm.lifetime.start.p0(i64 8, ptr %8) #12
  %12 = load ptr, ptr %6, align 8, !tbaa !120
  %13 = call ptr @gtk_get_event_widget(ptr noundef %12)
  store ptr %13, ptr %8, align 8, !tbaa !127
  call void @llvm.lifetime.start.p0(i64 8, ptr %9) #12
  %14 = call i64 @gtk_button_get_type() #15
  store i64 %14, ptr %9, align 8, !tbaa !96
  call void @llvm.lifetime.start.p0(i64 4, ptr %10) #12
  %15 = load ptr, ptr %8, align 8, !tbaa !127
  %16 = icmp ne ptr %15, null
  br i1 %16, label %18, label %17

17:                                               ; preds = %3
  store i32 0, ptr %10, align 4, !tbaa !62
  br label %37

18:                                               ; preds = %3
  %19 = load ptr, ptr %8, align 8, !tbaa !127
  %20 = getelementptr inbounds nuw %struct._GTypeInstance, ptr %19, i32 0, i32 0
  %21 = load ptr, ptr %20, align 8, !tbaa !129
  %22 = icmp ne ptr %21, null
  br i1 %22, label %23, label %32

23:                                               ; preds = %18
  %24 = load ptr, ptr %8, align 8, !tbaa !127
  %25 = getelementptr inbounds nuw %struct._GTypeInstance, ptr %24, i32 0, i32 0
  %26 = load ptr, ptr %25, align 8, !tbaa !129
  %27 = getelementptr inbounds nuw %struct._GTypeClass, ptr %26, i32 0, i32 0
  %28 = load i64, ptr %27, align 8, !tbaa !132
  %29 = load i64, ptr %9, align 8, !tbaa !96
  %30 = icmp eq i64 %28, %29
  br i1 %30, label %31, label %32

31:                                               ; preds = %23
  store i32 1, ptr %10, align 4, !tbaa !62
  br label %36

32:                                               ; preds = %23, %18
  %33 = load ptr, ptr %8, align 8, !tbaa !127
  %34 = load i64, ptr %9, align 8, !tbaa !96
  %35 = call i32 @g_type_check_instance_is_a(ptr noundef %33, i64 noundef %34) #13
  store i32 %35, ptr %10, align 4, !tbaa !62
  br label %36

36:                                               ; preds = %32, %31
  br label %37

37:                                               ; preds = %36, %17
  %38 = load i32, ptr %10, align 4, !tbaa !62
  store i32 %38, ptr %11, align 4, !tbaa !62
  call void @llvm.lifetime.end.p0(i64 4, ptr %10) #12
  call void @llvm.lifetime.end.p0(i64 8, ptr %9) #12
  call void @llvm.lifetime.end.p0(i64 8, ptr %8) #12
  %39 = load i32, ptr %11, align 4, !tbaa !62
  %40 = icmp ne i32 %39, 0
  br i1 %40, label %41, label %42

41:                                               ; preds = %37
  store i32 0, ptr %4, align 4
  br label %47

42:                                               ; preds = %37
  %43 = load ptr, ptr %5, align 8, !tbaa !111
  %44 = load ptr, ptr %6, align 8, !tbaa !120
  %45 = load ptr, ptr %7, align 8, !tbaa !76
  %46 = call i32 @_lib_plugin_arrow_button_press(ptr noundef %43, ptr noundef %44, ptr noundef %45)
  store i32 %46, ptr %4, align 4
  br label %47

47:                                               ; preds = %42, %41
  %48 = load i32, ptr %4, align 4
  ret i32 %48
}