; Function Attrs: nounwind uwtable
define internal range(i32 0, 2) i32 @_lib_plugin_header_button_release(ptr noundef readnone captures(none) %0, ptr noundef %1, ptr noundef %2) #0 {
  %4 = tail call ptr @gtk_get_event_widget(ptr noundef %1) #19
  %5 = tail call i64 @gtk_button_get_type() #23
  %.not = icmp eq ptr %4, null
  br i1 %.not, label %.critedge, label %6

6:                                                ; preds = %3
  %7 = load ptr, ptr %4, align 8, !tbaa !113
  %.not15 = icmp eq ptr %7, null
  br i1 %.not15, label %11, label %8

8:                                                ; preds = %6
  %9 = load i64, ptr %7, align 8, !tbaa !116
  %10 = icmp eq i64 %9, %5
  br i1 %10, label %.critedge18, label %11

11:                                               ; preds = %8, %6
  %12 = tail call i32 @g_type_check_instance_is_a(ptr noundef nonnull %4, i64 noundef %5) #21
  %13 = icmp eq i32 %12, 0
  br i1 %13, label %.critedge, label %.critedge18

.critedge:                                        ; preds = %3, %11
  %14 = tail call i32 @_lib_plugin_arrow_button_press(ptr poison, ptr noundef %1, ptr noundef %2)
  br label %.critedge18

.critedge18:                                      ; preds = %8, %11, %.critedge
  %.0 = phi i32 [ %14, %.critedge ], [ 0, %11 ], [ 0, %8 ]
  ret i32 %.0
}